target datalayout = "e-m:e-p270:32:32-p271:32:32-p272:64:64-i64:64-i128:128-f80:128-n8:16:32:64-S128"
target triple = "x86_64-pc-linux-gnu"

%struct.PROV_DH_CTX = type { ptr, ptr, ptr, i8, i32, ptr, ptr, i64, i64, ptr }

@.str = private unnamed_addr constant [56 x i8] c"../openssl/providers/implementations/exchange/dh_exch.c\00", align 1
@__func__.dh_plain_derive = private unnamed_addr constant [16 x i8] c"dh_plain_derive\00", align 1

; Function Attrs: nounwind uwtable
define internal i32 @dh_plain_derive(ptr noundef %0, ptr noundef %1, ptr noundef %2, i64 noundef %3, i32 noundef %4) #0 {
  %6 = alloca i32, align 4
  %7 = alloca ptr, align 8
  %8 = alloca ptr, align 8
  %9 = alloca ptr, align 8
  %10 = alloca i64, align 8
  %11 = alloca i32, align 4
  %12 = alloca ptr, align 8
  %13 = alloca i32, align 4
  %14 = alloca i64, align 8
  %15 = alloca ptr, align 8
  %16 = alloca i32, align 4
  store ptr %0, ptr %7, align 8, !tbaa !3
  store ptr %1, ptr %8, align 8, !tbaa !19
  store ptr %2, ptr %9, align 8, !tbaa !20
  store i64 %3, ptr %10, align 8, !tbaa !22
  store i32 %4, ptr %11, align 4, !tbaa !32
  call void @llvm.lifetime.start.p0(i64 8, ptr %12) #7
  %17 = load ptr, ptr %7, align 8, !tbaa !3
  store ptr %17, ptr %12, align 8, !tbaa !3
  call void @llvm.lifetime.start.p0(i64 4, ptr %13) #7
  call void @llvm.lifetime.start.p0(i64 8, ptr %14) #7
  call void @llvm.lifetime.start.p0(i64 8, ptr %15) #7
  store ptr null, ptr %15, align 8, !tbaa !38
  %18 = load ptr, ptr %12, align 8, !tbaa !3
  %19 = getelementptr inbounds nuw %struct.PROV_DH_CTX, ptr %18, i32 0, i32 1
  %20 = load ptr, ptr %19, align 8, !tbaa !18
  %21 = icmp eq ptr %20, null
  br i1 %21, label %27, label %22

22:                                               ; preds = %5
  %23 = load ptr, ptr %12, align 8, !tbaa !3
  %24 = getelementptr inbounds nuw %struct.PROV_DH_CTX, ptr %23, i32 0, i32 2
  %25 = load ptr, ptr %24, align 8, !tbaa !23
  %26 = icmp eq ptr %25, null
  br i1 %26, label %27, label %28

27:                                               ; preds = %22, %5
  call void @ERR_new()
  call void @ERR_set_debug(ptr noundef @.str, i32 noundef 185, ptr noundef @__func__.dh_plain_derive)
  call void (i32, i32, ptr, ...) @ERR_set_error(i32 noundef 57, i32 noundef 128, ptr noundef null)
  store i32 0, ptr %6, align 4
  store i32 1, ptr %16, align 4
  br label %72

28:                                               ; preds = %22
  %29 = load ptr, ptr %12, align 8, !tbaa !3
  %30 = getelementptr inbounds nuw %struct.PROV_DH_CTX, ptr %29, i32 0, i32 1
  %31 = load ptr, ptr %30, align 8, !tbaa !18
  %32 = call i32 @DH_size(ptr noundef %31)
  %33 = sext i32 %32 to i64
  store i64 %33, ptr %14, align 8, !tbaa !22
  %34 = load ptr, ptr %8, align 8, !tbaa !19
  %35 = icmp eq ptr %34, null
  br i1 %35, label %36, label %39

36:                                               ; preds = %28
  %37 = load i64, ptr %14, align 8, !tbaa !22
  %38 = load ptr, ptr %9, align 8, !tbaa !20
  store i64 %37, ptr %38, align 8, !tbaa !22
  store i32 1, ptr %6, align 4
  store i32 1, ptr %16, align 4
  br label %72

39:                                               ; preds = %28
  %40 = load i64, ptr %10, align 8, !tbaa !22
  %41 = load i64, ptr %14, align 8, !tbaa !22
  %42 = icmp ult i64 %40, %41
  br i1 %42, label %43, label %44

43:                                               ; preds = %39
  call void @ERR_new()
  call void @ERR_set_debug(ptr noundef @.str, i32 noundef 195, ptr noundef @__func__.dh_plain_derive)
  call void (i32, i32, ptr, ...) @ERR_set_error(i32 noundef 57, i32 noundef 106, ptr noundef null)
  store i32 0, ptr %6, align 4
  store i32 1, ptr %16, align 4
  br label %72

44:                                               ; preds = %39
  %45 = load ptr, ptr %12, align 8, !tbaa !3
  %46 = getelementptr inbounds nuw %struct.PROV_DH_CTX, ptr %45, i32 0, i32 2
  %47 = load ptr, ptr %46, align 8, !tbaa !23
  call void @DH_get0_key(ptr noundef %47, ptr noundef %15, ptr noundef null)
  %48 = load i32, ptr %11, align 4, !tbaa !32
  %49 = icmp ne i32 %48, 0
  br i1 %49, label %50, label %57

50:                                               ; preds = %44
  %51 = load ptr, ptr %8, align 8, !tbaa !19
  %52 = load ptr, ptr %15, align 8, !tbaa !38
  %53 = load ptr, ptr %12, align 8, !tbaa !3
  %54 = getelementptr inbounds nuw %struct.PROV_DH_CTX, ptr %53, i32 0, i32 1
  %55 = load ptr, ptr %54, align 8, !tbaa !18
  %56 = call i32 @DH_compute_key_padded(ptr noundef %51, ptr noundef %52, ptr noundef %55)
  store i32 %56, ptr %13, align 4, !tbaa !32
  br label %64

57:                                               ; preds = %44
  %58 = load ptr, ptr %8, align 8, !tbaa !19
  %59 = load ptr, ptr %15, align 8, !tbaa !38
  %60 = load ptr, ptr %12, align 8, !tbaa !3
  %61 = getelementptr inbounds nuw %struct.PROV_DH_CTX, ptr %60, i32 0, i32 1
  %62 = load ptr, ptr %61, align 8, !tbaa !18
  %63 = call i32 @DH_compute_key(ptr noundef %58, ptr noundef %59, ptr noundef %62)
  store i32 %63, ptr %13, align 4, !tbaa !32
  br label %64

64:                                               ; preds = %57, %50
  %65 = load i32, ptr %13, align 4, !tbaa !32
  %66 = icmp sle i32 %65, 0
  br i1 %66, label %67, label %68

67:                                               ; preds = %64
  store i32 0, ptr %6, align 4
  store i32 1, ptr %16, align 4
  br label %72

68:                                               ; preds = %64
  %69 = load i32, ptr %13, align 4, !tbaa !32
  %70 = sext i32 %69 to i64
  %71 = load ptr, ptr %9, align 8, !tbaa !20
  store i64 %70, ptr %71, align 8, !tbaa !22
  store i32 1, ptr %6, align 4
  store i32 1, ptr %16, align 4
  br label %72

72:                                               ; preds = %68, %67, %43, %36, %27
  call void @llvm.lifetime.end.p0(i64 8, ptr %15) #7
  call void @llvm.lifetime.end.p0(i64 8, ptr %14) #7
  call void @llvm.lifetime.end.p0(i64 4, ptr %13) #7
  call void @llvm.lifetime.end.p0(i64 8, ptr %12) #7
  %73 = load i32, ptr %6, align 4
  ret i32 %73
}