; Function Attrs: nounwind uwtable
define internal fastcc range(i32 0, 2) i32 @dh_plain_derive(ptr noundef readonly captures(none) %0, ptr noundef %1, ptr noundef writeonly captures(none) %2, i64 noundef %3, i32 noundef range(i32 0, 2) %4) unnamed_addr #0 {
  %6 = alloca ptr, align 8
  call void @llvm.lifetime.start.p0(i64 8, ptr nonnull %6) #7
  store ptr null, ptr %6, align 8, !tbaa !35
  %7 = getelementptr inbounds nuw i8, ptr %0, i64 8
  %8 = load ptr, ptr %7, align 8, !tbaa !15
  %9 = icmp eq ptr %8, null
  br i1 %9, label %14, label %10

10:                                               ; preds = %5
  %11 = getelementptr inbounds nuw i8, ptr %0, i64 16
  %12 = load ptr, ptr %11, align 8, !tbaa !18
  %13 = icmp eq ptr %12, null
  br i1 %13, label %14, label %15

14:                                               ; preds = %10, %5
  tail call void @ERR_new() #7
  tail call void @ERR_set_debug(ptr noundef nonnull @.str, i32 noundef 185, ptr noundef nonnull @__func__.dh_plain_derive) #7
  tail call void (i32, i32, ptr, ...) @ERR_set_error(i32 noundef 57, i32 noundef 128, ptr noundef null) #7
  br label %35

15:                                               ; preds = %10
  %16 = tail call i32 @DH_size(ptr noundef nonnull %8) #7
  %17 = sext i32 %16 to i64
  %18 = icmp eq ptr %1, null
  br i1 %18, label %19, label %20

19:                                               ; preds = %15
  store i64 %17, ptr %2, align 8, !tbaa !17
  br label %35

20:                                               ; preds = %15
  %21 = icmp ult i64 %3, %17
  br i1 %21, label %22, label %23

22:                                               ; preds = %20
  tail call void @ERR_new() #7
  tail call void @ERR_set_debug(ptr noundef nonnull @.str, i32 noundef 195, ptr noundef nonnull @__func__.dh_plain_derive) #7
  tail call void (i32, i32, ptr, ...) @ERR_set_error(i32 noundef 57, i32 noundef 106, ptr noundef null) #7
  br label %35

23:                                               ; preds = %20
  %24 = load ptr, ptr %11, align 8, !tbaa !18
  call void @DH_get0_key(ptr noundef %24, ptr noundef nonnull %6, ptr noundef null) #7
  %.not = icmp eq i32 %4, 0
  %25 = load ptr, ptr %6, align 8, !tbaa !35
  %26 = load ptr, ptr %7, align 8, !tbaa !15
  br i1 %.not, label %29, label %27

27:                                               ; preds = %23
  %28 = call i32 @DH_compute_key_padded(ptr noundef nonnull %1, ptr noundef %25, ptr noundef %26) #7
  br label %31

29:                                               ; preds = %23
  %30 = call i32 @DH_compute_key(ptr noundef nonnull %1, ptr noundef %25, ptr noundef %26) #7
  br label %31

31:                                               ; preds = %29, %27
  %.018 = phi i32 [ %28, %27 ], [ %30, %29 ]
  %32 = icmp slt i32 %.018, 1
  br i1 %32, label %35, label %33

33:                                               ; preds = %31
  %34 = zext nneg i32 %.018 to i64
  store i64 %34, ptr %2, align 8, !tbaa !17
  br label %35

35:                                               ; preds = %31, %33, %22, %19, %14
  %.0 = phi i32 [ 0, %14 ], [ 1, %19 ], [ 0, %22 ], [ 1, %33 ], [ 0, %31 ]
  call void @llvm.lifetime.end.p0(i64 8, ptr nonnull %6) #7
  ret i32 %.0
}